target datalayout = "e-m:e-p270:32:32-p271:32:32-p272:64:64-i64:64-i128:128-f80:128-n8:16:32:64-S128"
target triple = "x86_64-pc-linux-gnu"

%class.cmValue = type { ptr }

@.str.207 = private unnamed_addr constant [8 x i8] c"SOURCES\00", align 1
@_ZN13cmSystemTools20s_FatalErrorOccurredE = external global i8, align 1

; Function Attrs: inlinehint mustprogress nounwind uwtable
define linkonce_odr dso_local noundef zeroext i1 @_ZSteqIcSt11char_traitsIcESaIcEEbRKNSt7__cxx1112basic_stringIT_T0_T1_EEPKS5_(ptr noundef nonnull align 8 dereferenceable(32) %0, ptr noundef %1) #7 comdat {
  %3 = alloca ptr, align 8
  %4 = alloca ptr, align 8
  store ptr %0, ptr %3, align 8, !tbaa !18
  store ptr %1, ptr %4, align 8, !tbaa !118
  %5 = load ptr, ptr %3, align 8, !tbaa !18
  %6 = load ptr, ptr %4, align 8, !tbaa !118
  %7 = call noundef i32 @_ZNKSt7__cxx1112basic_stringIcSt11char_traitsIcESaIcEE7compareEPKc(ptr noundef nonnull align 8 dereferenceable(32) %5, ptr noundef %6) #3
  %8 = icmp eq i32 %7, 0
  ret i1 %8
}

; Function Attrs: mustprogress nounwind uwtable
define linkonce_odr dso_local void @_ZN7cmValueC2EDn(ptr noundef nonnull align 8 dereferenceable(8) %0, ptr %1) unnamed_addr #6 comdat align 2 {
  %3 = alloca ptr, align 8
  %4 = alloca ptr, align 8
  store ptr %0, ptr %3, align 8, !tbaa !131
  store ptr %1, ptr %4, align 8, !tbaa !133
  %5 = load ptr, ptr %3, align 8
  %6 = getelementptr inbounds nuw %class.cmValue, ptr %5, i32 0, i32 0
  store ptr null, ptr %6, align 8, !tbaa !135
  ret void
}

; Function Attrs: mustprogress uwtable
define linkonce_odr dso_local noundef zeroext i1 @_ZN13cmSystemTools21GetFatalErrorOccurredEv() #5 comdat align 2 {
  %1 = load i8, ptr @_ZN13cmSystemTools20s_FatalErrorOccurredE, align 1, !tbaa !273, !range !274, !noundef !275
  %2 = trunc i8 %1 to i1
  br i1 %2, label %5, label %3

3:                                                ; preds = %0
  %4 = call noundef zeroext i1 @_ZN13cmSystemTools16GetInterruptFlagEv()
  br label %5

5:                                                ; preds = %3, %0
  %6 = phi i1 [ true, %0 ], [ %4, %3 ]
  ret i1 %6
}

; Function Attrs: mustprogress nounwind uwtable
define linkonce_odr dso_local noundef zeroext i1 @_ZNK7cmValuecvbEv(ptr noundef nonnull align 8 dereferenceable(8) %0) #6 comdat align 2 {
  %2 = alloca ptr, align 8
  store ptr %0, ptr %2, align 8, !tbaa !131
  %3 = load ptr, ptr %2, align 8
  %4 = getelementptr inbounds nuw %class.cmValue, ptr %3, i32 0, i32 0
  %5 = load ptr, ptr %4, align 8, !tbaa !135
  %6 = icmp ne ptr %5, null
  ret i1 %6
}

; Function Attrs: mustprogress uwtable
define linkonce_odr dso_local ptr @_ZN24cmTargetPropertyComputer11GetPropertyI8cmTargetEE7cmValuePKT_RKNSt7__cxx1112basic_stringIcSt11char_traitsIcESaIcEEERK10cmMakefile(ptr noundef %0, ptr noundef nonnull align 8 dereferenceable(32) %1, ptr noundef nonnull align 8 dereferenceable(2880) %2) #5 comdat align 2 {
  %4 = alloca %class.cmValue, align 8
  %5 = alloca ptr, align 8
  %6 = alloca ptr, align 8
  %7 = alloca ptr, align 8
  store ptr %0, ptr %5, align 8, !tbaa !20
  store ptr %1, ptr %6, align 8, !tbaa !18
  store ptr %2, ptr %7, align 8, !tbaa !212
  %8 = load ptr, ptr %5, align 8, !tbaa !20
  %9 = load ptr, ptr %6, align 8, !tbaa !18
  %10 = load ptr, ptr %7, align 8, !tbaa !212
  %11 = call ptr @_ZN24cmTargetPropertyComputer11GetLocationI8cmTargetEE7cmValuePKT_RKNSt7__cxx1112basic_stringIcSt11char_traitsIcESaIcEEERK10cmMakefile(ptr noundef %8, ptr noundef nonnull align 8 dereferenceable(32) %9, ptr noundef nonnull align 8 dereferenceable(2880) %10)
  %12 = getelementptr inbounds nuw %class.cmValue, ptr %4, i32 0, i32 0
  store ptr %11, ptr %12, align 8
  %13 = call noundef zeroext i1 @_ZNK7cmValuecvbEv(ptr noundef nonnull align 8 dereferenceable(8) %4) #3
  br i1 %13, label %14, label %15

14:                                               ; preds = %3
  br label %26

15:                                               ; preds = %3
  %16 = call noundef zeroext i1 @_ZN13cmSystemTools21GetFatalErrorOccurredEv()
  br i1 %16, label %17, label %18

17:                                               ; preds = %15
  call void @_ZN7cmValueC2EDn(ptr noundef nonnull align 8 dereferenceable(8) %4, ptr null) #3
  br label %26

18:                                               ; preds = %15
  %19 = load ptr, ptr %6, align 8, !tbaa !18
  %20 = call noundef zeroext i1 @_ZSteqIcSt11char_traitsIcESaIcEEbRKNSt7__cxx1112basic_stringIT_T0_T1_EEPKS5_(ptr noundef nonnull align 8 dereferenceable(32) %19, ptr noundef @.str.207)
  br i1 %20, label %21, label %25

21:                                               ; preds = %18
  %22 = load ptr, ptr %5, align 8, !tbaa !20
  %23 = call ptr @_ZN24cmTargetPropertyComputer10GetSourcesI8cmTargetEE7cmValuePKT_(ptr noundef %22)
  %24 = getelementptr inbounds nuw %class.cmValue, ptr %4, i32 0, i32 0
  store ptr %23, ptr %24, align 8
  br label %26

25:                                               ; preds = %18
  call void @_ZN7cmValueC2EDn(ptr noundef nonnull align 8 dereferenceable(8) %4, ptr null) #3
  br label %26

26:                                               ; preds = %25, %21, %17, %14
  %27 = getelementptr inbounds nuw %class.cmValue, ptr %4, i32 0, i32 0
  %28 = load ptr, ptr %27, align 8
  ret ptr %28
}

; Function Attrs: mustprogress uwtable
define dso_local ptr @_ZNK8cmTarget19GetComputedPropertyERKNSt7__cxx1112basic_stringIcSt11char_traitsIcESaIcEEER10cmMakefile(ptr noundef nonnull align 8 dereferenceable(8) %0, ptr noundef nonnull align 8 dereferenceable(32) %1, ptr noundef nonnull align 8 dereferenceable(2880) %2) #5 align 2 {
  %4 = alloca %class.cmValue, align 8
  %5 = alloca ptr, align 8
  %6 = alloca ptr, align 8
  %7 = alloca ptr, align 8
  store ptr %0, ptr %5, align 8, !tbaa !20
  store ptr %1, ptr %6, align 8, !tbaa !18
  store ptr %2, ptr %7, align 8, !tbaa !212
  %8 = load ptr, ptr %5, align 8
  %9 = load ptr, ptr %6, align 8, !tbaa !18
  %10 = load ptr, ptr %7, align 8, !tbaa !212
  %11 = call ptr @_ZN24cmTargetPropertyComputer11GetPropertyI8cmTargetEE7cmValuePKT_RKNSt7__cxx1112basic_stringIcSt11char_traitsIcESaIcEEERK10cmMakefile(ptr noundef %8, ptr noundef nonnull align 8 dereferenceable(32) %9, ptr noundef nonnull align 8 dereferenceable(2880) %10)
  %12 = getelementptr inbounds nuw %class.cmValue, ptr %4, i32 0, i32 0
  store ptr %11, ptr %12, align 8
  %13 = getelementptr inbounds nuw %class.cmValue, ptr %4, i32 0, i32 0
  %14 = load ptr, ptr %13, align 8
  ret ptr %14
}