; Function Attrs: mustprogress uwtable
define dso_local ptr @_ZNK8cmTarget19GetComputedPropertyERKNSt7__cxx1112basic_stringIcSt11char_traitsIcESaIcEEER10cmMakefile(ptr noundef nonnull align 8 dereferenceable(8) %0, ptr noundef nonnull align 8 dereferenceable(32) %1, ptr noundef nonnull align 8 dereferenceable(2880) %2) local_unnamed_addr #5 align 2 {
  %4 = tail call ptr @_ZN24cmTargetPropertyComputer11GetLocationI8cmTargetEE7cmValuePKT_RKNSt7__cxx1112basic_stringIcSt11char_traitsIcESaIcEEERK10cmMakefile(ptr noundef nonnull %0, ptr noundef nonnull align 8 dereferenceable(32) %1, ptr noundef nonnull align 8 dereferenceable(2880) %2)
  %.not.i = icmp eq ptr %4, null
  br i1 %.not.i, label %5, label %_ZN24cmTargetPropertyComputer11GetPropertyI8cmTargetEE7cmValuePKT_RKNSt7__cxx1112basic_stringIcSt11char_traitsIcESaIcEEERK10cmMakefile.exit

5:                                                ; preds = %3
  %6 = load i8, ptr @_ZN13cmSystemTools20s_FatalErrorOccurredE, align 1, !tbaa !833, !range !122, !noundef !123
  %7 = trunc nuw i8 %6 to i1
  br i1 %7, label %_ZN24cmTargetPropertyComputer11GetPropertyI8cmTargetEE7cmValuePKT_RKNSt7__cxx1112basic_stringIcSt11char_traitsIcESaIcEEERK10cmMakefile.exit, label %_ZN13cmSystemTools21GetFatalErrorOccurredEv.exit.i

_ZN13cmSystemTools21GetFatalErrorOccurredEv.exit.i: ; preds = %5
  %8 = tail call noundef zeroext i1 @_ZN13cmSystemTools16GetInterruptFlagEv()
  br i1 %8, label %_ZN24cmTargetPropertyComputer11GetPropertyI8cmTargetEE7cmValuePKT_RKNSt7__cxx1112basic_stringIcSt11char_traitsIcESaIcEEERK10cmMakefile.exit, label %9

9:                                                ; preds = %_ZN13cmSystemTools21GetFatalErrorOccurredEv.exit.i
  %10 = tail call noundef i32 @_ZNKSt7__cxx1112basic_stringIcSt11char_traitsIcESaIcEE7compareEPKc(ptr noundef nonnull align 8 dereferenceable(32) %1, ptr noundef nonnull @.str.207) #30
  %11 = icmp eq i32 %10, 0
  br i1 %11, label %12, label %_ZN24cmTargetPropertyComputer11GetPropertyI8cmTargetEE7cmValuePKT_RKNSt7__cxx1112basic_stringIcSt11char_traitsIcESaIcEEERK10cmMakefile.exit

12:                                               ; preds = %9
  %13 = tail call ptr @_ZN24cmTargetPropertyComputer10GetSourcesI8cmTargetEE7cmValuePKT_(ptr noundef nonnull %0)
  br label %_ZN24cmTargetPropertyComputer11GetPropertyI8cmTargetEE7cmValuePKT_RKNSt7__cxx1112basic_stringIcSt11char_traitsIcESaIcEEERK10cmMakefile.exit

_ZN24cmTargetPropertyComputer11GetPropertyI8cmTargetEE7cmValuePKT_RKNSt7__cxx1112basic_stringIcSt11char_traitsIcESaIcEEERK10cmMakefile.exit: ; preds = %3, %5, %_ZN13cmSystemTools21GetFatalErrorOccurredEv.exit.i, %9, %12
  %.sroa.0.0.i = phi ptr [ %4, %3 ], [ %13, %12 ], [ null, %_ZN13cmSystemTools21GetFatalErrorOccurredEv.exit.i ], [ null, %9 ], [ null, %5 ]
  ret ptr %.sroa.0.0.i
}